target datalayout = "e-m:e-p270:32:32-p271:32:32-p272:64:64-i64:64-i128:128-f80:128-n8:16:32:64-S128"
target triple = "x86_64-pc-linux-gnu"

%struct.persist_conn_t = type { ptr, i32, i32, i8, ptr, ptr, ptr, i64, i16, i32, i16, i8, i32, i32, ptr, i16, ptr, i64, i32, ptr, %struct.slurm_trigger_callbacks_t, i16 }
%struct.slurm_trigger_callbacks_t = type { ptr, ptr, ptr, ptr, ptr }

@first = internal global i32 1, align 4

; Function Attrs: nounwind uwtable
define dso_local ptr @acct_storage_p_get_connection(i32 noundef %0, ptr noundef %1, i1 noundef zeroext %2, ptr noundef %3) #0 {
  %5 = alloca i32, align 4
  %6 = alloca ptr, align 8
  %7 = alloca i8, align 1
  %8 = alloca ptr, align 8
  %9 = alloca ptr, align 8
  store i32 %0, ptr %5, align 4
  store ptr %1, ptr %6, align 8
  %10 = zext i1 %2 to i8
  store i8 %10, ptr %7, align 1
  store ptr %3, ptr %8, align 8
  call void @llvm.lifetime.start.p0(i64 8, ptr %9) #9
  %11 = load i32, ptr @first, align 4
  %12 = icmp ne i32 %11, 0
  br i1 %12, label %13, label %15

13:                                               ; preds = %4
  %14 = call i32 @init()
  br label %15

15:                                               ; preds = %13, %4
  %16 = load ptr, ptr %6, align 8
  %17 = load ptr, ptr %8, align 8
  %18 = call ptr @dbd_conn_open(ptr noundef %16, ptr noundef %17, ptr noundef null, i16 noundef zeroext 0)
  store ptr %18, ptr %9, align 8
  %19 = load ptr, ptr %9, align 8
  call void @slurmdbd_agent_set_conn(ptr noundef %19)
  %20 = load ptr, ptr %9, align 8
  %21 = icmp ne ptr %20, null
  br i1 %21, label %22, label %30

22:                                               ; preds = %15
  %23 = load ptr, ptr %6, align 8
  %24 = icmp ne ptr %23, null
  br i1 %24, label %25, label %30

25:                                               ; preds = %22
  %26 = load ptr, ptr %9, align 8
  %27 = getelementptr inbounds nuw %struct.persist_conn_t, ptr %26, i32 0, i32 10
  %28 = load i16, ptr %27, align 8
  %29 = load ptr, ptr %6, align 8
  store i16 %28, ptr %29, align 2
  br label %30

30:                                               ; preds = %25, %22, %15
  %31 = load ptr, ptr %9, align 8
  call void @llvm.lifetime.end.p0(i64 8, ptr %9) #9
  ret ptr %31
}