; Function Attrs: nounwind uwtable
define dso_local noundef ptr @acct_storage_p_get_connection(i32 noundef %0, ptr noundef %1, i1 noundef zeroext %2, ptr noundef %3) local_unnamed_addr #0 {
  %.b = load i1, ptr @first, align 4
  br i1 %.b, label %7, label %5

5:                                                ; preds = %4
  %6 = tail call i32 @init()
  br label %7

7:                                                ; preds = %5, %4
  %8 = tail call ptr @dbd_conn_open(ptr noundef %1, ptr noundef %3, ptr noundef null, i16 noundef zeroext 0) #11
  tail call void @slurmdbd_agent_set_conn(ptr noundef %8) #11
  %9 = icmp ne ptr %8, null
  %10 = icmp ne ptr %1, null
  %or.cond = and i1 %10, %9
  br i1 %or.cond, label %11, label %14

11:                                               ; preds = %7
  %12 = getelementptr inbounds nuw i8, ptr %8, i64 64
  %13 = load i16, ptr %12, align 8
  store i16 %13, ptr %1, align 2
  br label %14

14:                                               ; preds = %11, %7
  ret ptr %8
}